target datalayout = "e-m:e-p270:32:32-p271:32:32-p272:64:64-i64:64-i128:128-f80:128-n8:16:32:64-S128"
target triple = "x86_64-pc-linux-gnu"

%struct.anon = type { i32, [0 x i8] }
%struct.JsonbValue = type { i32, %union.anon }
%union.anon = type { %struct.anon.2 }
%struct.anon.2 = type { i32, ptr, i8 }
%struct.FunctionCallInfoBaseData = type { ptr, ptr, ptr, i32, i8, i16, [0 x %struct.NullableDatum] }
%struct.NullableDatum = type { i64, i8 }
%struct.Jsonb = type { i32, %struct.JsonbContainer }
%struct.JsonbContainer = type { i32, [0 x i32] }
%struct.anon.1 = type { i32, ptr }
%struct.ReturnSetInfo = type { i32, ptr, ptr, i32, i32, i32, ptr, ptr }

@.str.2 = private unnamed_addr constant [12 x i8] c"jsonfuncs.c\00", align 1
@CurrentMemoryContext = external global ptr, align 8
@.str.57 = private unnamed_addr constant [31 x i8] c"cannot call %s on a non-object\00", align 1
@__func__.each_worker_jsonb = private unnamed_addr constant [18 x i8] c"each_worker_jsonb\00", align 1
@.str.58 = private unnamed_addr constant [25 x i8] c"jsonb_each temporary cxt\00", align 1

; Function Attrs: inlinehint nounwind uwtable
define internal ptr @DatumGetPointer(i64 noundef %0) #3 {
  %2 = alloca i64, align 8
  store i64 %0, ptr %2, align 8
  %3 = load i64, ptr %2, align 8
  %4 = inttoptr i64 %3 to ptr
  ret ptr %4
}

; Function Attrs: inlinehint nounwind uwtable
define internal i64 @PointerGetDatum(ptr noundef %0) #3 {
  %2 = alloca ptr, align 8
  store ptr %0, ptr %2, align 8
  %3 = load ptr, ptr %2, align 8
  %4 = ptrtoint ptr %3 to i64
  ret i64 %4
}

; Function Attrs: inlinehint nounwind uwtable
define internal ptr @MemoryContextSwitchTo(ptr noundef %0) #3 {
  %2 = alloca ptr, align 8
  %3 = alloca ptr, align 8
  store ptr %0, ptr %2, align 8
  call void @llvm.lifetime.start.p0(i64 8, ptr %3) #10
  %4 = load ptr, ptr @CurrentMemoryContext, align 8
  store ptr %4, ptr %3, align 8
  %5 = load ptr, ptr %2, align 8
  store ptr %5, ptr @CurrentMemoryContext, align 8
  %6 = load ptr, ptr %3, align 8
  call void @llvm.lifetime.end.p0(i64 8, ptr %3) #10
  ret ptr %6
}

; Function Attrs: inlinehint nounwind uwtable
define internal ptr @DatumGetJsonbP(i64 noundef %0) #3 {
  %2 = alloca i64, align 8
  store i64 %0, ptr %2, align 8
  %3 = load i64, ptr %2, align 8
  %4 = call ptr @DatumGetPointer(i64 noundef %3)
  %5 = call ptr @pg_detoast_datum(ptr noundef %4)
  ret ptr %5
}

; Function Attrs: nounwind uwtable
define internal i64 @each_worker_jsonb(ptr noundef %0, ptr noundef %1, i1 noundef zeroext %2) #0 {
  %4 = alloca i64, align 8
  %5 = alloca ptr, align 8
  %6 = alloca ptr, align 8
  %7 = alloca i8, align 1
  %8 = alloca ptr, align 8
  %9 = alloca ptr, align 8
  %10 = alloca ptr, align 8
  %11 = alloca ptr, align 8
  %12 = alloca i8, align 1
  %13 = alloca ptr, align 8
  %14 = alloca %struct.JsonbValue, align 8
  %15 = alloca i32, align 4
  %16 = alloca i32, align 4
  %17 = alloca ptr, align 8
  %18 = alloca [2 x i64], align 16
  %19 = alloca [2 x i8], align 1
  %20 = alloca ptr, align 8
  %21 = alloca i32, align 4
  store ptr %0, ptr %5, align 8
  store ptr %1, ptr %6, align 8
  %22 = zext i1 %2 to i8
  store i8 %22, ptr %7, align 1
  call void @llvm.lifetime.start.p0(i64 8, ptr %8) #10
  %23 = load ptr, ptr %5, align 8
  %24 = getelementptr inbounds nuw %struct.FunctionCallInfoBaseData, ptr %23, i32 0, i32 6
  %25 = getelementptr inbounds [0 x %struct.NullableDatum], ptr %24, i64 0, i64 0
  %26 = getelementptr inbounds nuw %struct.NullableDatum, ptr %25, i32 0, i32 0
  %27 = load i64, ptr %26, align 8
  %28 = call ptr @DatumGetJsonbP(i64 noundef %27)
  store ptr %28, ptr %8, align 8
  call void @llvm.lifetime.start.p0(i64 8, ptr %9) #10
  call void @llvm.lifetime.start.p0(i64 8, ptr %10) #10
  call void @llvm.lifetime.start.p0(i64 8, ptr %11) #10
  call void @llvm.lifetime.start.p0(i64 1, ptr %12) #10
  store i8 0, ptr %12, align 1
  call void @llvm.lifetime.start.p0(i64 8, ptr %13) #10
  call void @llvm.lifetime.start.p0(i64 32, ptr %14) #10
  call void @llvm.lifetime.start.p0(i64 4, ptr %15) #10
  %29 = load ptr, ptr %8, align 8
  %30 = getelementptr inbounds nuw %struct.anon, ptr %29, i32 0, i32 1
  %31 = getelementptr inbounds [0 x i8], ptr %30, i64 0, i64 0
  %32 = load i32, ptr %31, align 4
  %33 = and i32 %32, 536870912
  %34 = icmp ne i32 %33, 0
  br i1 %34, label %48, label %35

35:                                               ; preds = %3
  br label %36

36:                                               ; preds = %35
  br i1 true, label %37, label %39

37:                                               ; preds = %36
  %38 = call zeroext i1 @errstart_cold(i32 noundef 21, ptr noundef null) #11
  br i1 %38, label %41, label %45

39:                                               ; preds = %36
  %40 = call zeroext i1 @errstart(i32 noundef 21, ptr noundef null)
  br i1 %40, label %41, label %45

41:                                               ; preds = %39, %37
  %42 = call i32 @errcode(i32 noundef 50856066)
  %43 = load ptr, ptr %6, align 8
  %44 = call i32 (ptr, ...) @errmsg(ptr noundef @.str.57, ptr noundef %43)
  call void @errfinish(ptr noundef @.str.2, i32 noundef 1988, ptr noundef @__func__.each_worker_jsonb)
  br label %45

45:                                               ; preds = %41, %39, %37
  unreachable

46:                                               ; No predecessors!
  br label %47

47:                                               ; preds = %46
  br label %48

48:                                               ; preds = %47, %3
  %49 = load ptr, ptr %5, align 8
  %50 = getelementptr inbounds nuw %struct.FunctionCallInfoBaseData, ptr %49, i32 0, i32 2
  %51 = load ptr, ptr %50, align 8
  store ptr %51, ptr %9, align 8
  %52 = load ptr, ptr %5, align 8
  call void @InitMaterializedSRF(ptr noundef %52, i32 noundef 2)
  br label %53

53:                                               ; preds = %48
  br label %54

54:                                               ; preds = %53
  br label %55

55:                                               ; preds = %54
  store i32 1, ptr %16, align 4
  %56 = load ptr, ptr @CurrentMemoryContext, align 8
  %57 = call ptr @AllocSetContextCreateInternal(ptr noundef %56, ptr noundef @.str.58, i64 noundef 0, i64 noundef 8192, i64 noundef 8388608)
  store ptr %57, ptr %11, align 8
  %58 = load ptr, ptr %8, align 8
  %59 = getelementptr inbounds nuw %struct.Jsonb, ptr %58, i32 0, i32 1
  %60 = call ptr @JsonbIteratorInit(ptr noundef %59)
  store ptr %60, ptr %13, align 8
  br label %61

61:                                               ; preds = %116, %55
  %62 = load i8, ptr %12, align 1, !range !4, !noundef !5
  %63 = trunc i8 %62 to i1
  %64 = call i32 @JsonbIteratorNext(ptr noundef %13, ptr noundef %14, i1 noundef zeroext %63)
  store i32 %64, ptr %15, align 4
  %65 = icmp ne i32 %64, 0
  br i1 %65, label %66, label %117

66:                                               ; preds = %61
  store i8 1, ptr %12, align 1
  %67 = load i32, ptr %15, align 4
  %68 = icmp eq i32 %67, 1
  br i1 %68, label %69, label %116

69:                                               ; preds = %66
  call void @llvm.lifetime.start.p0(i64 8, ptr %17) #10
  call void @llvm.lifetime.start.p0(i64 16, ptr %18) #10
  call void @llvm.lifetime.start.p0(i64 2, ptr %19) #10
  call void @llvm.memset.p0.i64(ptr align 1 %19, i8 0, i64 2, i1 false)
  %70 = load ptr, ptr %11, align 8
  %71 = call ptr @MemoryContextSwitchTo(ptr noundef %70)
  store ptr %71, ptr %10, align 8
  %72 = getelementptr inbounds nuw %struct.JsonbValue, ptr %14, i32 0, i32 1
  %73 = getelementptr inbounds nuw %struct.anon.1, ptr %72, i32 0, i32 1
  %74 = load ptr, ptr %73, align 8
  %75 = getelementptr inbounds nuw %struct.JsonbValue, ptr %14, i32 0, i32 1
  %76 = getelementptr inbounds nuw %struct.anon.1, ptr %75, i32 0, i32 0
  %77 = load i32, ptr %76, align 8
  %78 = call ptr @cstring_to_text_with_len(ptr noundef %74, i32 noundef %77)
  store ptr %78, ptr %17, align 8
  %79 = load i8, ptr %12, align 1, !range !4, !noundef !5
  %80 = trunc i8 %79 to i1
  %81 = call i32 @JsonbIteratorNext(ptr noundef %13, ptr noundef %14, i1 noundef zeroext %80)
  store i32 %81, ptr %15, align 4
  %82 = load ptr, ptr %17, align 8
  %83 = call i64 @PointerGetDatum(ptr noundef %82)
  %84 = getelementptr inbounds [2 x i64], ptr %18, i64 0, i64 0
  store i64 %83, ptr %84, align 16
  %85 = load i8, ptr %7, align 1, !range !4, !noundef !5
  %86 = trunc i8 %85 to i1
  br i1 %86, label %87, label %99

87:                                               ; preds = %69
  %88 = getelementptr inbounds nuw %struct.JsonbValue, ptr %14, i32 0, i32 0
  %89 = load i32, ptr %88, align 8
  %90 = icmp eq i32 %89, 0
  br i1 %90, label %91, label %94

91:                                               ; preds = %87
  %92 = getelementptr inbounds [2 x i8], ptr %19, i64 0, i64 1
  store i8 1, ptr %92, align 1
  %93 = getelementptr inbounds [2 x i64], ptr %18, i64 0, i64 1
  store i64 0, ptr %93, align 8
  br label %98

94:                                               ; preds = %87
  %95 = call ptr @JsonbValueAsText(ptr noundef %14)
  %96 = call i64 @PointerGetDatum(ptr noundef %95)
  %97 = getelementptr inbounds [2 x i64], ptr %18, i64 0, i64 1
  store i64 %96, ptr %97, align 8
  br label %98

98:                                               ; preds = %94, %91
  br label %104

99:                                               ; preds = %69
  call void @llvm.lifetime.start.p0(i64 8, ptr %20) #10
  %100 = call ptr @JsonbValueToJsonb(ptr noundef %14)
  store ptr %100, ptr %20, align 8
  %101 = load ptr, ptr %20, align 8
  %102 = call i64 @PointerGetDatum(ptr noundef %101)
  %103 = getelementptr inbounds [2 x i64], ptr %18, i64 0, i64 1
  store i64 %102, ptr %103, align 8
  call void @llvm.lifetime.end.p0(i64 8, ptr %20) #10
  br label %104

104:                                              ; preds = %99, %98
  %105 = load ptr, ptr %9, align 8
  %106 = getelementptr inbounds nuw %struct.ReturnSetInfo, ptr %105, i32 0, i32 6
  %107 = load ptr, ptr %106, align 8
  %108 = load ptr, ptr %9, align 8
  %109 = getelementptr inbounds nuw %struct.ReturnSetInfo, ptr %108, i32 0, i32 7
  %110 = load ptr, ptr %109, align 8
  %111 = getelementptr inbounds [2 x i64], ptr %18, i64 0, i64 0
  %112 = getelementptr inbounds [2 x i8], ptr %19, i64 0, i64 0
  call void @tuplestore_putvalues(ptr noundef %107, ptr noundef %110, ptr noundef %111, ptr noundef %112)
  %113 = load ptr, ptr %10, align 8
  %114 = call ptr @MemoryContextSwitchTo(ptr noundef %113)
  %115 = load ptr, ptr %11, align 8
  call void @MemoryContextReset(ptr noundef %115)
  call void @llvm.lifetime.end.p0(i64 2, ptr %19) #10
  call void @llvm.lifetime.end.p0(i64 16, ptr %18) #10
  call void @llvm.lifetime.end.p0(i64 8, ptr %17) #10
  br label %116

116:                                              ; preds = %104, %66
  br label %61, !llvm.loop !11

117:                                              ; preds = %61
  %118 = load ptr, ptr %11, align 8
  call void @MemoryContextDelete(ptr noundef %118)
  br label %119

119:                                              ; preds = %117
  %120 = load ptr, ptr %5, align 8
  %121 = getelementptr inbounds nuw %struct.FunctionCallInfoBaseData, ptr %120, i32 0, i32 4
  store i8 1, ptr %121, align 4
  store i64 0, ptr %4, align 8
  store i32 1, ptr %21, align 4
  br label %124

122:                                              ; No predecessors!
  br label %123

123:                                              ; preds = %122
  store i32 0, ptr %21, align 4
  br label %124

124:                                              ; preds = %123, %119
  call void @llvm.lifetime.end.p0(i64 4, ptr %15) #10
  call void @llvm.lifetime.end.p0(i64 32, ptr %14) #10
  call void @llvm.lifetime.end.p0(i64 8, ptr %13) #10
  call void @llvm.lifetime.end.p0(i64 1, ptr %12) #10
  call void @llvm.lifetime.end.p0(i64 8, ptr %11) #10
  call void @llvm.lifetime.end.p0(i64 8, ptr %10) #10
  call void @llvm.lifetime.end.p0(i64 8, ptr %9) #10
  call void @llvm.lifetime.end.p0(i64 8, ptr %8) #10
  %125 = load i32, ptr %21, align 4
  switch i32 %125, label %128 [
    i32 0, label %126
    i32 1, label %126
  ]

126:                                              ; preds = %124, %124
  %127 = load i64, ptr %4, align 8
  ret i64 %127

128:                                              ; preds = %124
  unreachable
}