; Function Attrs: nounwind uwtable
define internal fastcc void @each_worker_jsonb(ptr noundef %0, ptr noundef %1, i1 noundef zeroext %2) unnamed_addr #0 {
  %4 = alloca ptr, align 8
  %5 = alloca %struct.JsonbValue, align 8
  %6 = alloca [2 x i64], align 16
  %7 = alloca [2 x i8], align 2
  %8 = getelementptr inbounds nuw i8, ptr %0, i64 32
  %9 = load i64, ptr %8, align 8
  %10 = inttoptr i64 %9 to ptr
  %11 = tail call ptr @pg_detoast_datum(ptr noundef %10) #15
  call void @llvm.lifetime.start.p0(i64 8, ptr nonnull %4) #15
  call void @llvm.lifetime.start.p0(i64 32, ptr nonnull %5) #15
  %12 = getelementptr inbounds nuw i8, ptr %11, i64 4
  %13 = load i32, ptr %12, align 4
  %14 = and i32 %13, 536870912
  %.not = icmp eq i32 %14, 0
  br i1 %.not, label %15, label %19

15:                                               ; preds = %3
  %16 = tail call zeroext i1 @errstart_cold(i32 noundef 21, ptr noundef null) #16
  tail call void @llvm.assume(i1 %16)
  %17 = tail call i32 @errcode(i32 noundef 50856066) #15
  %18 = tail call i32 (ptr, ...) @errmsg(ptr noundef nonnull @.str.57, ptr noundef %1) #15
  tail call void @errfinish(ptr noundef nonnull @.str.2, i32 noundef 1988, ptr noundef nonnull @__func__.each_worker_jsonb) #15
  unreachable

19:                                               ; preds = %3
  %20 = getelementptr inbounds nuw i8, ptr %0, i64 16
  %21 = load ptr, ptr %20, align 8
  tail call void @InitMaterializedSRF(ptr noundef nonnull %0, i32 noundef 2) #15
  %22 = load ptr, ptr @CurrentMemoryContext, align 8
  %23 = tail call ptr @AllocSetContextCreateInternal(ptr noundef %22, ptr noundef nonnull @.str.58, i64 noundef 0, i64 noundef 8192, i64 noundef 8388608) #15
  %24 = tail call ptr @JsonbIteratorInit(ptr noundef nonnull %12) #15
  store ptr %24, ptr %4, align 8
  %25 = getelementptr inbounds nuw i8, ptr %5, i64 8
  %26 = getelementptr inbounds nuw i8, ptr %5, i64 16
  %27 = getelementptr inbounds nuw i8, ptr %6, i64 8
  %28 = getelementptr inbounds nuw i8, ptr %7, i64 1
  %29 = getelementptr inbounds nuw i8, ptr %21, i64 40
  %30 = getelementptr inbounds nuw i8, ptr %21, i64 48
  br i1 %2, label %.split.us, label %.split

.split.us:                                        ; preds = %19, %.split.us.backedge
  %.0.us = phi i1 [ true, %.split.us.backedge ], [ false, %19 ]
  %31 = call i32 @JsonbIteratorNext(ptr noundef nonnull %4, ptr noundef nonnull %5, i1 noundef zeroext %.0.us) #15
  switch i32 %31, label %.split.us.backedge [
    i32 0, label %.split22.us
    i32 1, label %32
  ]

32:                                               ; preds = %.split.us
  call void @llvm.lifetime.start.p0(i64 16, ptr nonnull %6) #15
  call void @llvm.lifetime.start.p0(i64 2, ptr nonnull %7) #15
  store i16 0, ptr %7, align 2
  %33 = load ptr, ptr @CurrentMemoryContext, align 8
  store ptr %23, ptr @CurrentMemoryContext, align 8
  %34 = load ptr, ptr %26, align 8
  %35 = load i32, ptr %25, align 8
  %36 = call ptr @cstring_to_text_with_len(ptr noundef %34, i32 noundef %35) #15
  %37 = call i32 @JsonbIteratorNext(ptr noundef nonnull %4, ptr noundef nonnull %5, i1 noundef zeroext true) #15
  %38 = ptrtoint ptr %36 to i64
  store i64 %38, ptr %6, align 16
  %39 = load i32, ptr %5, align 8
  %40 = icmp eq i32 %39, 0
  br i1 %40, label %44, label %41

41:                                               ; preds = %32
  %42 = call fastcc ptr @JsonbValueAsText(ptr noundef nonnull %5)
  %43 = ptrtoint ptr %42 to i64
  br label %45

44:                                               ; preds = %32
  store i8 1, ptr %28, align 1
  br label %45

45:                                               ; preds = %44, %41
  %storemerge = phi i64 [ %43, %41 ], [ 0, %44 ]
  store i64 %storemerge, ptr %27, align 8
  %46 = load ptr, ptr %29, align 8
  %47 = load ptr, ptr %30, align 8
  call void @tuplestore_putvalues(ptr noundef %46, ptr noundef %47, ptr noundef nonnull %6, ptr noundef nonnull %7) #15
  store ptr %33, ptr @CurrentMemoryContext, align 8
  call void @MemoryContextReset(ptr noundef %23) #15
  call void @llvm.lifetime.end.p0(i64 2, ptr nonnull %7) #15
  call void @llvm.lifetime.end.p0(i64 16, ptr nonnull %6) #15
  br label %.split.us.backedge

.split.us.backedge:                               ; preds = %45, %.split.us
  br label %.split.us, !llvm.loop !15

.split:                                           ; preds = %19, %.split.backedge
  %.0 = phi i1 [ true, %.split.backedge ], [ false, %19 ]
  %48 = call i32 @JsonbIteratorNext(ptr noundef nonnull %4, ptr noundef nonnull %5, i1 noundef zeroext %.0) #15
  switch i32 %48, label %.split.backedge [
    i32 0, label %.split22.us
    i32 1, label %49
  ]

.split.backedge:                                  ; preds = %.split, %49
  br label %.split, !llvm.loop !15

49:                                               ; preds = %.split
  call void @llvm.lifetime.start.p0(i64 16, ptr nonnull %6) #15
  call void @llvm.lifetime.start.p0(i64 2, ptr nonnull %7) #15
  store i16 0, ptr %7, align 2
  %50 = load ptr, ptr @CurrentMemoryContext, align 8
  store ptr %23, ptr @CurrentMemoryContext, align 8
  %51 = load ptr, ptr %26, align 8
  %52 = load i32, ptr %25, align 8
  %53 = call ptr @cstring_to_text_with_len(ptr noundef %51, i32 noundef %52) #15
  %54 = call i32 @JsonbIteratorNext(ptr noundef nonnull %4, ptr noundef nonnull %5, i1 noundef zeroext true) #15
  %55 = ptrtoint ptr %53 to i64
  store i64 %55, ptr %6, align 16
  %56 = call ptr @JsonbValueToJsonb(ptr noundef nonnull %5) #15
  %57 = ptrtoint ptr %56 to i64
  store i64 %57, ptr %27, align 8
  %58 = load ptr, ptr %29, align 8
  %59 = load ptr, ptr %30, align 8
  call void @tuplestore_putvalues(ptr noundef %58, ptr noundef %59, ptr noundef nonnull %6, ptr noundef nonnull %7) #15
  store ptr %50, ptr @CurrentMemoryContext, align 8
  call void @MemoryContextReset(ptr noundef %23) #15
  call void @llvm.lifetime.end.p0(i64 2, ptr nonnull %7) #15
  call void @llvm.lifetime.end.p0(i64 16, ptr nonnull %6) #15
  br label %.split.backedge

.split22.us:                                      ; preds = %.split, %.split.us
  call void @MemoryContextDelete(ptr noundef %23) #15
  %60 = getelementptr inbounds nuw i8, ptr %0, i64 28
  store i8 1, ptr %60, align 4
  call void @llvm.lifetime.end.p0(i64 32, ptr nonnull %5) #15
  call void @llvm.lifetime.end.p0(i64 8, ptr nonnull %4) #15
  ret void
}